; Function Attrs: nounwind uwtable
define ptr @l___private_Std_Tactic_BVDecide_LRAT_Internal_Formula_RupAddResult_0__Std_Tactic_BVDecide_LRAT_Internal_DefaultFormula_insertUnit_match__3_splitter___rarg(ptr noundef %0, ptr noundef %1) #0 {
  %3 = getelementptr inbounds nuw i8, ptr %0, i64 8
  %4 = getelementptr inbounds nuw i8, ptr %0, i64 16
  %5 = load ptr, ptr %4, align 8, !tbaa !4
  %6 = ptrtoint ptr %5 to i64
  %7 = and i64 %6, 1
  %.not = icmp eq i64 %7, 0
  br i1 %.not, label %8, label %lean_inc.exit

8:                                                ; preds = %2
  %.val.i = load i32, ptr %5, align 4, !tbaa !8
  %9 = icmp sgt i32 %.val.i, 0
  br i1 %9, label %10, label %12, !prof !11

10:                                               ; preds = %8
  %11 = add nuw i32 %.val.i, 1
  store i32 %11, ptr %5, align 4, !tbaa !8
  br label %lean_inc.exit

12:                                               ; preds = %8
  %.not.i21 = icmp eq i32 %.val.i, 0
  br i1 %.not.i21, label %lean_inc.exit, label %13

13:                                               ; preds = %12
  tail call void @lean_inc_ref_cold(ptr noundef nonnull %5) #3
  br label %lean_inc.exit

lean_inc.exit:                                    ; preds = %13, %12, %10, %2
  %14 = load ptr, ptr %3, align 8, !tbaa !4
  %15 = ptrtoint ptr %14 to i64
  %16 = and i64 %15, 1
  %.not31 = icmp eq i64 %16, 0
  br i1 %.not31, label %17, label %lean_inc.exit15

17:                                               ; preds = %lean_inc.exit
  %.val.i22 = load i32, ptr %14, align 4, !tbaa !8
  %18 = icmp sgt i32 %.val.i22, 0
  br i1 %18, label %19, label %21, !prof !11

19:                                               ; preds = %17
  %20 = add nuw i32 %.val.i22, 1
  store i32 %20, ptr %14, align 4, !tbaa !8
  br label %lean_inc.exit15

21:                                               ; preds = %17
  %.not.i23 = icmp eq i32 %.val.i22, 0
  br i1 %.not.i23, label %lean_inc.exit15, label %22

22:                                               ; preds = %21
  tail call void @lean_inc_ref_cold(ptr noundef nonnull %14) #3
  br label %lean_inc.exit15

lean_inc.exit15:                                  ; preds = %22, %21, %19, %lean_inc.exit
  %23 = ptrtoint ptr %0 to i64
  %24 = and i64 %23, 1
  %.not32 = icmp eq i64 %24, 0
  br i1 %.not32, label %25, label %lean_dec.exit

25:                                               ; preds = %lean_inc.exit15
  %26 = load i32, ptr %0, align 4, !tbaa !8
  %27 = icmp sgt i32 %26, 1
  br i1 %27, label %28, label %30, !prof !11

28:                                               ; preds = %25
  %29 = add nsw i32 %26, -1
  store i32 %29, ptr %0, align 4, !tbaa !8
  br label %lean_dec.exit

30:                                               ; preds = %25
  %.not.i19 = icmp eq i32 %26, 0
  br i1 %.not.i19, label %lean_dec.exit, label %31

31:                                               ; preds = %30
  tail call void @lean_dec_ref_cold(ptr noundef nonnull %0) #3
  br label %lean_dec.exit

lean_dec.exit:                                    ; preds = %31, %30, %28, %lean_inc.exit15
  %32 = getelementptr inbounds nuw i8, ptr %5, i64 8
  %33 = load ptr, ptr %32, align 8, !tbaa !4
  %34 = ptrtoint ptr %33 to i64
  %35 = and i64 %34, 1
  %.not33 = icmp eq i64 %35, 0
  br i1 %.not33, label %36, label %lean_inc.exit16

36:                                               ; preds = %lean_dec.exit
  %.val.i25 = load i32, ptr %33, align 4, !tbaa !8
  %37 = icmp sgt i32 %.val.i25, 0
  br i1 %37, label %38, label %40, !prof !11

38:                                               ; preds = %36
  %39 = add nuw i32 %.val.i25, 1
  store i32 %39, ptr %33, align 4, !tbaa !8
  br label %lean_inc.exit16

40:                                               ; preds = %36
  %.not.i26 = icmp eq i32 %.val.i25, 0
  br i1 %.not.i26, label %lean_inc.exit16, label %41

41:                                               ; preds = %40
  tail call void @lean_inc_ref_cold(ptr noundef nonnull %33) #3
  br label %lean_inc.exit16

lean_inc.exit16:                                  ; preds = %41, %40, %38, %lean_dec.exit
  %42 = getelementptr inbounds nuw i8, ptr %5, i64 16
  %43 = load ptr, ptr %42, align 8, !tbaa !4
  %44 = ptrtoint ptr %43 to i64
  %45 = and i64 %44, 1
  %.not34 = icmp eq i64 %45, 0
  br i1 %.not34, label %46, label %lean_inc.exit17

46:                                               ; preds = %lean_inc.exit16
  %.val.i28 = load i32, ptr %43, align 4, !tbaa !8
  %47 = icmp sgt i32 %.val.i28, 0
  br i1 %47, label %48, label %50, !prof !11

48:                                               ; preds = %46
  %49 = add nuw i32 %.val.i28, 1
  store i32 %49, ptr %43, align 4, !tbaa !8
  br label %lean_inc.exit17

50:                                               ; preds = %46
  %.not.i29 = icmp eq i32 %.val.i28, 0
  br i1 %.not.i29, label %lean_inc.exit17, label %51

51:                                               ; preds = %50
  tail call void @lean_inc_ref_cold(ptr noundef nonnull %43) #3
  br label %lean_inc.exit17

lean_inc.exit17:                                  ; preds = %51, %50, %48, %lean_inc.exit16
  br i1 %.not, label %52, label %lean_dec.exit18

52:                                               ; preds = %lean_inc.exit17
  %53 = load i32, ptr %5, align 4, !tbaa !8
  %54 = icmp sgt i32 %53, 1
  br i1 %54, label %55, label %57, !prof !11

55:                                               ; preds = %52
  %56 = add nsw i32 %53, -1
  store i32 %56, ptr %5, align 4, !tbaa !8
  br label %lean_dec.exit18

57:                                               ; preds = %52
  %.not.i = icmp eq i32 %53, 0
  br i1 %.not.i, label %lean_dec.exit18, label %58

58:                                               ; preds = %57
  tail call void @lean_dec_ref_cold(ptr noundef nonnull %5) #3
  br label %lean_dec.exit18

lean_dec.exit18:                                  ; preds = %58, %57, %55, %lean_inc.exit17
  %59 = tail call ptr @lean_apply_3(ptr noundef %1, ptr noundef %14, ptr noundef %33, ptr noundef %43) #3
  ret ptr %59
}